(lp0
VABB.ST
p1
aVALFA.ST
p2
aVASSA-B.ST
p3
aVAZN.ST
p4
aVATCO-A.ST
p5
aVATCO-B.ST
p6
aVBOL.ST
p7
aVELUX-B.ST
p8
aVERIC-B.ST
p9
aVGETI-B.ST
p10
aVHM-B.ST
p11
aVINVE-B.ST
p12
aVKINV-B.ST
p13
aVLUPE.ST
p14
aVMTG-B.ST
p15
aVNOKI.ST
p16
aVNDA-SEK.ST
p17
aVSAND.ST
p18
aVSCA-B.ST
p19
aVSEB-A.ST
p20
aVSECU-B.ST
p21
aVSKA-B.ST
p22
aVSKF-B.ST
p23
aVSSAB-A.ST
p24
aVSHB-A.ST
p25
aVSWED-A.ST
p26
aVSWMA.ST
p27
aVTEL2-B.ST
p28
aVTLSN.ST
p29
aVVOLV-B.ST
p30
a.