(lp0
VABB Ltd
p1
aVAlfa Laval
p2
aVAssa Abloy B
p3
aVAstraZeneca
p4
aVAtlas Copco A
p5
aVAtlas Copco B
p6
aVBoliden
p7
aVElectrolux B
p8
aVEricsson B
p9
aVFingerprint Cards B
p10
aVGetinge B
p11
aVHennes & Mauritz B
p12
aVInvestor B
p13
aVLundin Petroleum
p14
aVKinnevik B
p15
aVNokia Oyj
p16
aVNordea Bank
p17
aVSandvik
p18
aVSEB A
p19
aVSecuritas B
p20
aVSkanska B
p21
aVSKF B
p22
aVSCA B
p23
aVSSAB A
p24
aVSvenska Handelsbanken A
p25
aVSwedbank A
p26
aVSwedish Match
p27
aVTele2 B
p28
aVTelia Company
p29
aVVolvo B
p30
a.